; Function Attrs: nounwind uwtable
define void @wc_rng_free(ptr noundef %0) local_unnamed_addr #0 {
  %.not = icmp eq ptr %0, null
  br i1 %.not, label %34, label %2

2:                                                ; preds = %1
  %3 = getelementptr inbounds nuw i8, ptr %0, i64 16
  %4 = load ptr, ptr %3, align 8, !tbaa !3
  %.not.i = icmp eq ptr %4, null
  br i1 %.not.i, label %wc_FreeRng.exit, label %5

5:                                                ; preds = %2
  %6 = ptrtoint ptr %4 to i64
  %7 = trunc i64 %6 to i32
  %8 = sub i32 0, %7
  %9 = and i32 %8, 7
  %10 = sub nuw nsw i32 128, %9
  %.not24.i.i.i = icmp eq i32 %9, 0
  br i1 %.not24.i.i.i, label %.lr.ph29.i.i.i.preheader, label %.lr.ph.i.i.i

.lr.ph29.i.i.i.preheader:                         ; preds = %.lr.ph.i.i.i, %5
  %.01528.i.i.i.ph = phi ptr [ %4, %5 ], [ %12, %.lr.ph.i.i.i ]
  br label %.lr.ph29.i.i.i

.lr.ph.i.i.i:                                     ; preds = %5, %.lr.ph.i.i.i
  %.126.i.i.i = phi i32 [ %11, %.lr.ph.i.i.i ], [ %9, %5 ]
  %.01625.i.i.i = phi ptr [ %12, %.lr.ph.i.i.i ], [ %4, %5 ]
  %11 = add nsw i32 %.126.i.i.i, -1
  %12 = getelementptr inbounds nuw i8, ptr %.01625.i.i.i, i64 1
  store volatile i8 0, ptr %.01625.i.i.i, align 1, !tbaa !15
  %.not.i.i.i = icmp eq i32 %11, 0
  br i1 %.not.i.i.i, label %.lr.ph29.i.i.i.preheader, label %.lr.ph.i.i.i, !llvm.loop !27

.preheader.i.i.i:                                 ; preds = %.lr.ph29.i.i.i
  %.not2232.i.i.i = icmp eq i32 %14, 0
  br i1 %.not2232.i.i.i, label %ForceZero.exit.i.i, label %.lr.ph35.i.i.i

.lr.ph29.i.i.i:                                   ; preds = %.lr.ph29.i.i.i.preheader, %.lr.ph29.i.i.i
  %.01528.i.i.i = phi ptr [ %13, %.lr.ph29.i.i.i ], [ %.01528.i.i.i.ph, %.lr.ph29.i.i.i.preheader ]
  %.01827.i.i.i = phi i32 [ %14, %.lr.ph29.i.i.i ], [ %10, %.lr.ph29.i.i.i.preheader ]
  %13 = getelementptr inbounds nuw i8, ptr %.01528.i.i.i, i64 8
  store volatile i64 0, ptr %.01528.i.i.i, align 8, !tbaa !11
  %14 = add nsw i32 %.01827.i.i.i, -8
  %15 = icmp ugt i32 %14, 7
  br i1 %15, label %.lr.ph29.i.i.i, label %.preheader.i.i.i, !llvm.loop !13

.lr.ph35.i.i.i:                                   ; preds = %.preheader.i.i.i, %.lr.ph35.i.i.i
  %.11734.i.i.i = phi ptr [ %17, %.lr.ph35.i.i.i ], [ %13, %.preheader.i.i.i ]
  %.11933.i.i.i = phi i32 [ %16, %.lr.ph35.i.i.i ], [ %14, %.preheader.i.i.i ]
  %16 = add i32 %.11933.i.i.i, -1
  %17 = getelementptr inbounds nuw i8, ptr %.11734.i.i.i, i64 1
  store volatile i8 0, ptr %.11734.i.i.i, align 1, !tbaa !15
  %.not22.i.i.i = icmp eq i32 %16, 0
  br i1 %.not22.i.i.i, label %ForceZero.exit.i.i, label %.lr.ph35.i.i.i, !llvm.loop !16

ForceZero.exit.i.i:                               ; preds = %.lr.ph35.i.i.i, %.preheader.i.i.i
  %18 = load ptr, ptr %3, align 8, !tbaa !3
  %.not14.i = icmp eq ptr %18, null
  br i1 %.not14.i, label %20, label %19

19:                                               ; preds = %ForceZero.exit.i.i
  tail call void @wolfSSL_Free(ptr noundef nonnull %18) #9
  br label %20

20:                                               ; preds = %19, %ForceZero.exit.i.i
  store ptr null, ptr %3, align 8, !tbaa !3
  br label %wc_FreeRng.exit

wc_FreeRng.exit:                                  ; preds = %2, %20
  %21 = getelementptr inbounds nuw i8, ptr %0, i64 24
  store i8 0, ptr %21, align 8, !tbaa !22
  %22 = ptrtoint ptr %0 to i64
  %23 = trunc i64 %22 to i32
  %24 = sub i32 0, %23
  %25 = and i32 %24, 7
  %26 = sub nuw nsw i32 32, %25
  %.not24.i = icmp eq i32 %25, 0
  br i1 %.not24.i, label %.lr.ph29.i.preheader, label %.lr.ph.i

.lr.ph29.i.preheader:                             ; preds = %.lr.ph.i, %wc_FreeRng.exit
  %.01528.i.ph = phi ptr [ %0, %wc_FreeRng.exit ], [ %28, %.lr.ph.i ]
  br label %.lr.ph29.i

.lr.ph.i:                                         ; preds = %wc_FreeRng.exit, %.lr.ph.i
  %.126.i = phi i32 [ %27, %.lr.ph.i ], [ %25, %wc_FreeRng.exit ]
  %.01625.i = phi ptr [ %28, %.lr.ph.i ], [ %0, %wc_FreeRng.exit ]
  %27 = add nsw i32 %.126.i, -1
  %28 = getelementptr inbounds nuw i8, ptr %.01625.i, i64 1
  store volatile i8 0, ptr %.01625.i, align 1, !tbaa !15
  %.not.i7 = icmp eq i32 %27, 0
  br i1 %.not.i7, label %.lr.ph29.i.preheader, label %.lr.ph.i, !llvm.loop !27

.preheader.i:                                     ; preds = %.lr.ph29.i
  %.not2232.i = icmp eq i32 %30, 0
  br i1 %.not2232.i, label %ForceZero.exit, label %.lr.ph35.i

.lr.ph29.i:                                       ; preds = %.lr.ph29.i.preheader, %.lr.ph29.i
  %.01528.i = phi ptr [ %29, %.lr.ph29.i ], [ %.01528.i.ph, %.lr.ph29.i.preheader ]
  %.01827.i = phi i32 [ %30, %.lr.ph29.i ], [ %26, %.lr.ph29.i.preheader ]
  %29 = getelementptr inbounds nuw i8, ptr %.01528.i, i64 8
  store volatile i64 0, ptr %.01528.i, align 8, !tbaa !11
  %30 = add nsw i32 %.01827.i, -8
  %31 = icmp ugt i32 %30, 7
  br i1 %31, label %.lr.ph29.i, label %.preheader.i, !llvm.loop !13

.lr.ph35.i:                                       ; preds = %.preheader.i, %.lr.ph35.i
  %.11734.i = phi ptr [ %33, %.lr.ph35.i ], [ %29, %.preheader.i ]
  %.11933.i = phi i32 [ %32, %.lr.ph35.i ], [ %30, %.preheader.i ]
  %32 = add i32 %.11933.i, -1
  %33 = getelementptr inbounds nuw i8, ptr %.11734.i, i64 1
  store volatile i8 0, ptr %.11734.i, align 1, !tbaa !15
  %.not22.i = icmp eq i32 %32, 0
  br i1 %.not22.i, label %ForceZero.exit, label %.lr.ph35.i, !llvm.loop !16

ForceZero.exit:                                   ; preds = %.lr.ph35.i, %.preheader.i
  tail call void @wolfSSL_Free(ptr noundef nonnull %0) #9
  br label %34

34:                                               ; preds = %ForceZero.exit, %1
  ret void
}